; Function Attrs: mustprogress uwtable
define noundef range(i64 -64, 1) i64 @_ZN11duckdb_zstd28ZSTD_DCtx_refPrefix_advancedEPNS_11ZSTD_DCtx_sEPKvmNS_22ZSTD_dictContentType_eE(ptr noundef captures(none) %0, ptr noundef %1, i64 noundef %2, i32 noundef %3) local_unnamed_addr #0 {
  %5 = getelementptr inbounds nuw i8, ptr %0, i64 30236
  %6 = load i32, ptr %5, align 4, !tbaa !129
  %.not.i = icmp eq i32 %6, 0
  br i1 %.not.i, label %7, label %_ZN11duckdb_zstd33ZSTD_DCtx_loadDictionary_advancedEPNS_11ZSTD_DCtx_sEPKvmNS_21ZSTD_dictLoadMethod_eENS_22ZSTD_dictContentType_eE.exit

7:                                                ; preds = %4
  %8 = getelementptr inbounds nuw i8, ptr %0, i64 30184
  %9 = load ptr, ptr %8, align 8, !tbaa !3
  %10 = tail call noundef i64 @_ZN11duckdb_zstd14ZSTD_freeDDictEPNS_12ZSTD_DDict_sE(ptr noundef %9)
  %11 = getelementptr inbounds nuw i8, ptr %0, i64 30208
  store i32 0, ptr %11, align 8, !tbaa !33
  tail call void @llvm.memset.p0.i64(ptr noundef nonnull align 8 dereferenceable(16) %8, i8 0, i64 16, i1 false)
  %12 = icmp ne ptr %1, null
  %13 = icmp ne i64 %2, 0
  %or.cond.i = and i1 %12, %13
  br i1 %or.cond.i, label %14, label %20

14:                                               ; preds = %7
  %15 = getelementptr inbounds nuw i8, ptr %0, i64 30128
  %16 = tail call noundef ptr @_ZN11duckdb_zstd25ZSTD_createDDict_advancedEPKvmNS_21ZSTD_dictLoadMethod_eENS_22ZSTD_dictContentType_eENS_14ZSTD_customMemE(ptr noundef nonnull %1, i64 noundef %2, i32 noundef 1, i32 noundef %3, ptr noundef nonnull byval(%"struct.duckdb_zstd::ZSTD_customMem") align 8 %15)
  store ptr %16, ptr %8, align 8, !tbaa !3
  %17 = icmp eq ptr %16, null
  br i1 %17, label %_ZN11duckdb_zstd33ZSTD_DCtx_loadDictionary_advancedEPNS_11ZSTD_DCtx_sEPKvmNS_21ZSTD_dictLoadMethod_eENS_22ZSTD_dictContentType_eE.exit, label %18

18:                                               ; preds = %14
  %19 = getelementptr inbounds nuw i8, ptr %0, i64 30192
  store ptr %16, ptr %19, align 8, !tbaa !111
  br label %20

20:                                               ; preds = %18, %7
  store i32 1, ptr %11, align 8, !tbaa !33
  br label %_ZN11duckdb_zstd33ZSTD_DCtx_loadDictionary_advancedEPNS_11ZSTD_DCtx_sEPKvmNS_21ZSTD_dictLoadMethod_eENS_22ZSTD_dictContentType_eE.exit

_ZN11duckdb_zstd33ZSTD_DCtx_loadDictionary_advancedEPNS_11ZSTD_DCtx_sEPKvmNS_21ZSTD_dictLoadMethod_eENS_22ZSTD_dictContentType_eE.exit: ; preds = %14, %4, %20
  %.1 = phi i64 [ 0, %20 ], [ -60, %4 ], [ -64, %14 ]
  ret i64 %.1
}